target datalayout = "e-m:e-p270:32:32-p271:32:32-p272:64:64-i64:64-i128:128-f80:128-n8:16:32:64-S128"
target triple = "x86_64-pc-linux-gnu"

%struct.AVRational = type { i32, i32 }
%struct.V4L2Context = type { ptr, i32, i32, i32, %struct.v4l2_format, i32, i32, %struct.AVRational, ptr, i32, i32, i32 }
%struct.v4l2_format = type { i32, %union.anon }
%union.anon = type { %struct.v4l2_window, [144 x i8] }
%struct.v4l2_window = type { %struct.v4l2_rect, i32, i32, ptr, i32, ptr, i8 }
%struct.v4l2_rect = type { i32, i32, i32, i32 }
%struct.V4L2m2mContext = type { [4096 x i8], i32, %struct.V4L2Context, %struct.V4L2Context, ptr, %union.sem_t, i32, i32, i32, %struct.AVPacket, ptr, ptr, ptr }
%union.sem_t = type { i64, [24 x i8] }
%struct.AVPacket = type { ptr, i64, i64, ptr, i32, i32, i32, ptr, i32, i64, i64, ptr, ptr, %struct.AVRational }
%struct.v4l2_format_update = type { i32, i32, i32, i32 }
%struct.v4l2_pix_format_mplane = type { i32, i32, i32, i32, i32, [8 x %struct.v4l2_plane_pix_format], i8, i8, %union.anon.1, i8, i8, [7 x i8] }
%struct.v4l2_plane_pix_format = type { i32, i32, [6 x i16] }
%union.anon.1 = type { i8 }
%struct.v4l2_pix_format = type { i32, i32, i32, i32, i32, i32, i32, i32, i32, %union.anon.0, i32, i32 }
%union.anon.0 = type { i32 }
%struct.AVCodecContext = type { ptr, i32, i32, ptr, i32, i32, ptr, ptr, ptr, i64, i32, i32, ptr, i32, %struct.AVRational, %struct.AVRational, %struct.AVRational, i32, i32, i32, i32, i32, %struct.AVRational, i32, i32, i32, i32, i32, i32, i32, i32, i32, i32, i32, ptr, ptr, i32, float, float, float, float, float, float, float, float, float, i32, i32, i32, i32, i32, i32, i32, i32, i32, i32, i32, i32, ptr, ptr, ptr, i32, i32, i32, i32, i32, i32, i32, i32, i32, i32, %struct.AVChannelLayout, i32, i32, i32, i32, i32, i32, i32, i32, ptr, i32, i32, i32, float, float, i32, i32, i32, i32, i32, ptr, i64, i64, float, float, i32, i32, ptr, ptr, i32, i32, i32, i32, i32, ptr, ptr, ptr, ptr, i32, i32, [8 x i64], i32, i32, i32, i32, i32, i32, i32, ptr, ptr, i32, i32, i32, i32, i32, i32, i32, i32, i32, i32, ptr, ptr, i32, i32, ptr, ptr, ptr, ptr, i32, i32, i64, i32, i32, i64, ptr, i64, ptr, i32, ptr, i32 }
%struct.AVChannelLayout = type { i32, i32, %union.anon.12, ptr }
%union.anon.12 = type { i64 }

; Function Attrs: inlinehint nounwind uwtable
define internal ptr @ctx_to_m2mctx(ptr noundef %0) #3 {
  %2 = alloca ptr, align 8
  %3 = alloca ptr, align 8
  %4 = alloca ptr, align 8
  %5 = alloca ptr, align 8
  %6 = alloca ptr, align 8
  store ptr %0, ptr %2, align 8, !tbaa !4
  %7 = load ptr, ptr %2, align 8, !tbaa !4
  %8 = getelementptr inbounds nuw %struct.V4L2Context, ptr %7, i32 0, i32 1
  %9 = load i32, ptr %8, align 8, !tbaa !11
  %10 = icmp eq i32 %9, 2
  br i1 %10, label %46, label %11

11:                                               ; preds = %1
  %12 = load ptr, ptr %2, align 8, !tbaa !4
  %13 = getelementptr inbounds nuw %struct.V4L2Context, ptr %12, i32 0, i32 1
  %14 = load i32, ptr %13, align 8, !tbaa !11
  %15 = icmp eq i32 %14, 10
  br i1 %15, label %46, label %16

16:                                               ; preds = %11
  %17 = load ptr, ptr %2, align 8, !tbaa !4
  %18 = getelementptr inbounds nuw %struct.V4L2Context, ptr %17, i32 0, i32 1
  %19 = load i32, ptr %18, align 8, !tbaa !11
  %20 = icmp eq i32 %19, 3
  br i1 %20, label %46, label %21

21:                                               ; preds = %16
  %22 = load ptr, ptr %2, align 8, !tbaa !4
  %23 = getelementptr inbounds nuw %struct.V4L2Context, ptr %22, i32 0, i32 1
  %24 = load i32, ptr %23, align 8, !tbaa !11
  %25 = icmp eq i32 %24, 8
  br i1 %25, label %46, label %26

26:                                               ; preds = %21
  %27 = load ptr, ptr %2, align 8, !tbaa !4
  %28 = getelementptr inbounds nuw %struct.V4L2Context, ptr %27, i32 0, i32 1
  %29 = load i32, ptr %28, align 8, !tbaa !11
  %30 = icmp eq i32 %29, 5
  br i1 %30, label %46, label %31

31:                                               ; preds = %26
  %32 = load ptr, ptr %2, align 8, !tbaa !4
  %33 = getelementptr inbounds nuw %struct.V4L2Context, ptr %32, i32 0, i32 1
  %34 = load i32, ptr %33, align 8, !tbaa !11
  %35 = icmp eq i32 %34, 7
  br i1 %35, label %46, label %36

36:                                               ; preds = %31
  %37 = load ptr, ptr %2, align 8, !tbaa !4
  %38 = getelementptr inbounds nuw %struct.V4L2Context, ptr %37, i32 0, i32 1
  %39 = load i32, ptr %38, align 8, !tbaa !11
  %40 = icmp eq i32 %39, 12
  br i1 %40, label %46, label %41

41:                                               ; preds = %36
  %42 = load ptr, ptr %2, align 8, !tbaa !4
  %43 = getelementptr inbounds nuw %struct.V4L2Context, ptr %42, i32 0, i32 1
  %44 = load i32, ptr %43, align 8, !tbaa !11
  %45 = icmp eq i32 %44, 14
  br i1 %45, label %46, label %51

46:                                               ; preds = %41, %36, %31, %26, %21, %16, %11, %1
  call void @llvm.lifetime.start.p0(i64 8, ptr %3) #8
  %47 = load ptr, ptr %2, align 8, !tbaa !4
  store ptr %47, ptr %3, align 8, !tbaa !4
  %48 = load ptr, ptr %3, align 8, !tbaa !4
  %49 = getelementptr inbounds i8, ptr %48, i64 -4376
  store ptr %49, ptr %4, align 8, !tbaa !27
  call void @llvm.lifetime.end.p0(i64 8, ptr %3) #8
  %50 = load ptr, ptr %4, align 8, !tbaa !27
  br label %56

51:                                               ; preds = %41
  call void @llvm.lifetime.start.p0(i64 8, ptr %5) #8
  %52 = load ptr, ptr %2, align 8, !tbaa !4
  store ptr %52, ptr %5, align 8, !tbaa !4
  %53 = load ptr, ptr %5, align 8, !tbaa !4
  %54 = getelementptr inbounds i8, ptr %53, i64 -4104
  store ptr %54, ptr %6, align 8, !tbaa !27
  call void @llvm.lifetime.end.p0(i64 8, ptr %5) #8
  %55 = load ptr, ptr %6, align 8, !tbaa !27
  br label %56

56:                                               ; preds = %51, %46
  %57 = phi ptr [ %50, %46 ], [ %55, %51 ]
  ret ptr %57
}

; Function Attrs: inlinehint nounwind uwtable
define internal i32 @v4l2_get_framesize_compressed(ptr noundef %0, i32 noundef %1, i32 noundef %2) #3 {
  %4 = alloca i32, align 4
  %5 = alloca ptr, align 8
  %6 = alloca i32, align 4
  %7 = alloca i32, align 4
  %8 = alloca ptr, align 8
  %9 = alloca i32, align 4
  %10 = alloca i32, align 4
  %11 = alloca i32, align 4
  store ptr %0, ptr %5, align 8, !tbaa !4
  store i32 %1, ptr %6, align 4, !tbaa !9
  store i32 %2, ptr %7, align 4, !tbaa !9
  call void @llvm.lifetime.start.p0(i64 8, ptr %8) #8
  %12 = load ptr, ptr %5, align 8, !tbaa !4
  %13 = call ptr @ctx_to_m2mctx(ptr noundef %12)
  store ptr %13, ptr %8, align 8, !tbaa !27
  call void @llvm.lifetime.start.p0(i64 4, ptr %9) #8
  store i32 4096, ptr %9, align 4, !tbaa !9
  call void @llvm.lifetime.start.p0(i64 4, ptr %10) #8
  %14 = load ptr, ptr %8, align 8, !tbaa !27
  %15 = getelementptr inbounds nuw %struct.V4L2m2mContext, ptr %14, i32 0, i32 4
  %16 = load ptr, ptr %15, align 8, !tbaa !32
  %17 = icmp ne ptr %16, null
  br i1 %17, label %18, label %34

18:                                               ; preds = %3
  %19 = load ptr, ptr %8, align 8, !tbaa !27
  %20 = getelementptr inbounds nuw %struct.V4L2m2mContext, ptr %19, i32 0, i32 4
  %21 = load ptr, ptr %20, align 8, !tbaa !32
  %22 = getelementptr inbounds nuw %struct.AVCodecContext, ptr %21, i32 0, i32 3
  %23 = load ptr, ptr %22, align 8, !tbaa !122
  %24 = call i32 @av_codec_is_decoder(ptr noundef %23)
  %25 = icmp ne i32 %24, 0
  br i1 %25, label %26, label %34

26:                                               ; preds = %18
  %27 = load i32, ptr %6, align 4, !tbaa !9
  %28 = load i32, ptr %7, align 4, !tbaa !9
  %29 = mul nsw i32 %27, %28
  %30 = mul nsw i32 %29, 3
  %31 = sdiv i32 %30, 2
  %32 = sdiv i32 %31, 2
  %33 = add nsw i32 %32, 128
  store i32 %33, ptr %4, align 4
  store i32 1, ptr %11, align 4
  br label %51

34:                                               ; preds = %18, %3
  %35 = load i32, ptr %7, align 4, !tbaa !9
  %36 = add nsw i32 %35, 32
  %37 = sub nsw i32 %36, 1
  %38 = and i32 %37, -32
  %39 = load i32, ptr %6, align 4, !tbaa !9
  %40 = add nsw i32 %39, 32
  %41 = sub nsw i32 %40, 1
  %42 = and i32 %41, -32
  %43 = mul nsw i32 %38, %42
  %44 = mul nsw i32 %43, 3
  %45 = sdiv i32 %44, 2
  %46 = sdiv i32 %45, 2
  store i32 %46, ptr %10, align 4, !tbaa !9
  %47 = load i32, ptr %10, align 4, !tbaa !9
  %48 = add nsw i32 %47, 4096
  %49 = sub nsw i32 %48, 1
  %50 = and i32 %49, -4096
  store i32 %50, ptr %4, align 4
  store i32 1, ptr %11, align 4
  br label %51

51:                                               ; preds = %34, %26
  call void @llvm.lifetime.end.p0(i64 4, ptr %10) #8
  call void @llvm.lifetime.end.p0(i64 4, ptr %9) #8
  call void @llvm.lifetime.end.p0(i64 8, ptr %8) #8
  %52 = load i32, ptr %4, align 4
  ret i32 %52
}

; Function Attrs: inlinehint nounwind uwtable
define internal void @v4l2_save_to_context(ptr noundef %0, ptr noundef %1) #3 {
  %3 = alloca ptr, align 8
  %4 = alloca ptr, align 8
  store ptr %0, ptr %3, align 8, !tbaa !4
  store ptr %1, ptr %4, align 8, !tbaa !76
  %5 = load ptr, ptr %3, align 8, !tbaa !4
  %6 = getelementptr inbounds nuw %struct.V4L2Context, ptr %5, i32 0, i32 1
  %7 = load i32, ptr %6, align 8, !tbaa !11
  %8 = load ptr, ptr %3, align 8, !tbaa !4
  %9 = getelementptr inbounds nuw %struct.V4L2Context, ptr %8, i32 0, i32 4
  %10 = getelementptr inbounds nuw %struct.v4l2_format, ptr %9, i32 0, i32 0
  store i32 %7, ptr %10, align 8, !tbaa !78
  %11 = load ptr, ptr %4, align 8, !tbaa !76
  %12 = getelementptr inbounds nuw %struct.v4l2_format_update, ptr %11, i32 0, i32 3
  %13 = load i32, ptr %12, align 4, !tbaa !67
  %14 = icmp ne i32 %13, 0
  br i1 %14, label %15, label %21

15:                                               ; preds = %2
  %16 = load ptr, ptr %4, align 8, !tbaa !76
  %17 = getelementptr inbounds nuw %struct.v4l2_format_update, ptr %16, i32 0, i32 2
  %18 = load i32, ptr %17, align 4, !tbaa !79
  %19 = load ptr, ptr %3, align 8, !tbaa !4
  %20 = getelementptr inbounds nuw %struct.V4L2Context, ptr %19, i32 0, i32 2
  store i32 %18, ptr %20, align 4, !tbaa !71
  br label %21

21:                                               ; preds = %15, %2
  %22 = load ptr, ptr %3, align 8, !tbaa !4
  %23 = getelementptr inbounds nuw %struct.V4L2Context, ptr %22, i32 0, i32 1
  %24 = load i32, ptr %23, align 8, !tbaa !11
  %25 = icmp eq i32 %24, 9
  br i1 %25, label %31, label %26

26:                                               ; preds = %21
  %27 = load ptr, ptr %3, align 8, !tbaa !4
  %28 = getelementptr inbounds nuw %struct.V4L2Context, ptr %27, i32 0, i32 1
  %29 = load i32, ptr %28, align 8, !tbaa !11
  %30 = icmp eq i32 %29, 10
  br i1 %30, label %31, label %73

31:                                               ; preds = %26, %21
  %32 = load ptr, ptr %3, align 8, !tbaa !4
  %33 = getelementptr inbounds nuw %struct.V4L2Context, ptr %32, i32 0, i32 6
  %34 = load i32, ptr %33, align 4, !tbaa !80
  %35 = load ptr, ptr %3, align 8, !tbaa !4
  %36 = getelementptr inbounds nuw %struct.V4L2Context, ptr %35, i32 0, i32 4
  %37 = getelementptr inbounds nuw %struct.v4l2_format, ptr %36, i32 0, i32 1
  %38 = getelementptr inbounds nuw %struct.v4l2_pix_format_mplane, ptr %37, i32 0, i32 1
  store i32 %34, ptr %38, align 4, !tbaa !58
  %39 = load ptr, ptr %3, align 8, !tbaa !4
  %40 = getelementptr inbounds nuw %struct.V4L2Context, ptr %39, i32 0, i32 5
  %41 = load i32, ptr %40, align 8, !tbaa !81
  %42 = load ptr, ptr %3, align 8, !tbaa !4
  %43 = getelementptr inbounds nuw %struct.V4L2Context, ptr %42, i32 0, i32 4
  %44 = getelementptr inbounds nuw %struct.v4l2_format, ptr %43, i32 0, i32 1
  %45 = getelementptr inbounds nuw %struct.v4l2_pix_format_mplane, ptr %44, i32 0, i32 0
  store i32 %41, ptr %45, align 8, !tbaa !58
  %46 = load ptr, ptr %4, align 8, !tbaa !76
  %47 = getelementptr inbounds nuw %struct.v4l2_format_update, ptr %46, i32 0, i32 1
  %48 = load i32, ptr %47, align 4, !tbaa !69
  %49 = icmp ne i32 %48, 0
  br i1 %49, label %50, label %72

50:                                               ; preds = %31
  %51 = load ptr, ptr %4, align 8, !tbaa !76
  %52 = getelementptr inbounds nuw %struct.v4l2_format_update, ptr %51, i32 0, i32 0
  %53 = load i32, ptr %52, align 4, !tbaa !82
  %54 = load ptr, ptr %3, align 8, !tbaa !4
  %55 = getelementptr inbounds nuw %struct.V4L2Context, ptr %54, i32 0, i32 4
  %56 = getelementptr inbounds nuw %struct.v4l2_format, ptr %55, i32 0, i32 1
  %57 = getelementptr inbounds nuw %struct.v4l2_pix_format_mplane, ptr %56, i32 0, i32 2
  store i32 %53, ptr %57, align 8, !tbaa !58
  %58 = load ptr, ptr %3, align 8, !tbaa !4
  %59 = load ptr, ptr %3, align 8, !tbaa !4
  %60 = getelementptr inbounds nuw %struct.V4L2Context, ptr %59, i32 0, i32 5
  %61 = load i32, ptr %60, align 8, !tbaa !81
  %62 = load ptr, ptr %3, align 8, !tbaa !4
  %63 = getelementptr inbounds nuw %struct.V4L2Context, ptr %62, i32 0, i32 6
  %64 = load i32, ptr %63, align 4, !tbaa !80
  %65 = call i32 @v4l2_get_framesize_compressed(ptr noundef %58, i32 noundef %61, i32 noundef %64)
  %66 = load ptr, ptr %3, align 8, !tbaa !4
  %67 = getelementptr inbounds nuw %struct.V4L2Context, ptr %66, i32 0, i32 4
  %68 = getelementptr inbounds nuw %struct.v4l2_format, ptr %67, i32 0, i32 1
  %69 = getelementptr inbounds nuw %struct.v4l2_pix_format_mplane, ptr %68, i32 0, i32 5
  %70 = getelementptr inbounds [8 x %struct.v4l2_plane_pix_format], ptr %69, i64 0, i64 0
  %71 = getelementptr inbounds nuw %struct.v4l2_plane_pix_format, ptr %70, i32 0, i32 0
  store i32 %65, ptr %71, align 4, !tbaa !58
  br label %72

72:                                               ; preds = %50, %31
  br label %113

73:                                               ; preds = %26
  %74 = load ptr, ptr %3, align 8, !tbaa !4
  %75 = getelementptr inbounds nuw %struct.V4L2Context, ptr %74, i32 0, i32 6
  %76 = load i32, ptr %75, align 4, !tbaa !80
  %77 = load ptr, ptr %3, align 8, !tbaa !4
  %78 = getelementptr inbounds nuw %struct.V4L2Context, ptr %77, i32 0, i32 4
  %79 = getelementptr inbounds nuw %struct.v4l2_format, ptr %78, i32 0, i32 1
  %80 = getelementptr inbounds nuw %struct.v4l2_pix_format, ptr %79, i32 0, i32 1
  store i32 %76, ptr %80, align 4, !tbaa !58
  %81 = load ptr, ptr %3, align 8, !tbaa !4
  %82 = getelementptr inbounds nuw %struct.V4L2Context, ptr %81, i32 0, i32 5
  %83 = load i32, ptr %82, align 8, !tbaa !81
  %84 = load ptr, ptr %3, align 8, !tbaa !4
  %85 = getelementptr inbounds nuw %struct.V4L2Context, ptr %84, i32 0, i32 4
  %86 = getelementptr inbounds nuw %struct.v4l2_format, ptr %85, i32 0, i32 1
  %87 = getelementptr inbounds nuw %struct.v4l2_pix_format, ptr %86, i32 0, i32 0
  store i32 %83, ptr %87, align 8, !tbaa !58
  %88 = load ptr, ptr %4, align 8, !tbaa !76
  %89 = getelementptr inbounds nuw %struct.v4l2_format_update, ptr %88, i32 0, i32 1
  %90 = load i32, ptr %89, align 4, !tbaa !69
  %91 = icmp ne i32 %90, 0
  br i1 %91, label %92, label %112

92:                                               ; preds = %73
  %93 = load ptr, ptr %4, align 8, !tbaa !76
  %94 = getelementptr inbounds nuw %struct.v4l2_format_update, ptr %93, i32 0, i32 0
  %95 = load i32, ptr %94, align 4, !tbaa !82
  %96 = load ptr, ptr %3, align 8, !tbaa !4
  %97 = getelementptr inbounds nuw %struct.V4L2Context, ptr %96, i32 0, i32 4
  %98 = getelementptr inbounds nuw %struct.v4l2_format, ptr %97, i32 0, i32 1
  %99 = getelementptr inbounds nuw %struct.v4l2_pix_format, ptr %98, i32 0, i32 2
  store i32 %95, ptr %99, align 8, !tbaa !58
  %100 = load ptr, ptr %3, align 8, !tbaa !4
  %101 = load ptr, ptr %3, align 8, !tbaa !4
  %102 = getelementptr inbounds nuw %struct.V4L2Context, ptr %101, i32 0, i32 5
  %103 = load i32, ptr %102, align 8, !tbaa !81
  %104 = load ptr, ptr %3, align 8, !tbaa !4
  %105 = getelementptr inbounds nuw %struct.V4L2Context, ptr %104, i32 0, i32 6
  %106 = load i32, ptr %105, align 4, !tbaa !80
  %107 = call i32 @v4l2_get_framesize_compressed(ptr noundef %100, i32 noundef %103, i32 noundef %106)
  %108 = load ptr, ptr %3, align 8, !tbaa !4
  %109 = getelementptr inbounds nuw %struct.V4L2Context, ptr %108, i32 0, i32 4
  %110 = getelementptr inbounds nuw %struct.v4l2_format, ptr %109, i32 0, i32 1
  %111 = getelementptr inbounds nuw %struct.v4l2_pix_format, ptr %110, i32 0, i32 5
  store i32 %107, ptr %111, align 4, !tbaa !58
  br label %112

112:                                              ; preds = %92, %73
  br label %113

113:                                              ; preds = %112, %72
  ret void
}