; Function Attrs: inlinehint nounwind uwtable
define internal fastcc void @v4l2_save_to_context(ptr noundef captures(none) initializes((24, 28), (32, 40)) %0, ptr noundef nonnull readonly captures(none) %1) unnamed_addr #6 {
  %3 = getelementptr inbounds nuw i8, ptr %0, i64 8
  %4 = load i32, ptr %3, align 8, !tbaa !4
  %5 = getelementptr inbounds nuw i8, ptr %0, i64 24
  store i32 %4, ptr %5, align 8, !tbaa !82
  %6 = getelementptr inbounds nuw i8, ptr %1, i64 12
  %7 = load i32, ptr %6, align 4, !tbaa !79
  %.not = icmp eq i32 %7, 0
  br i1 %.not, label %12, label %8

8:                                                ; preds = %2
  %9 = getelementptr inbounds nuw i8, ptr %1, i64 8
  %10 = load i32, ptr %9, align 4, !tbaa !83
  %11 = getelementptr inbounds nuw i8, ptr %0, i64 12
  store i32 %10, ptr %11, align 4, !tbaa !73
  br label %12

12:                                               ; preds = %8, %2
  %.off = add i32 %4, -9
  %switch = icmp ult i32 %.off, 2
  %13 = getelementptr inbounds nuw i8, ptr %0, i64 236
  %14 = load i32, ptr %13, align 4, !tbaa !84
  %15 = getelementptr inbounds nuw i8, ptr %0, i64 32
  %16 = getelementptr inbounds nuw i8, ptr %0, i64 36
  store i32 %14, ptr %16, align 4, !tbaa !50
  %17 = getelementptr inbounds nuw i8, ptr %0, i64 232
  %18 = load i32, ptr %17, align 8, !tbaa !85
  store i32 %18, ptr %15, align 8, !tbaa !50
  %19 = getelementptr inbounds nuw i8, ptr %1, i64 4
  %20 = load i32, ptr %19, align 4, !tbaa !81
  %.not30 = icmp eq i32 %20, 0
  br i1 %switch, label %21, label %47

21:                                               ; preds = %12
  br i1 %.not30, label %77, label %ctx_to_m2mctx.exit.i

ctx_to_m2mctx.exit.i:                             ; preds = %21
  %22 = load i32, ptr %1, align 4, !tbaa !86
  %23 = getelementptr inbounds nuw i8, ptr %0, i64 40
  store i32 %22, ptr %23, align 8, !tbaa !50
  %cond = icmp eq i32 %4, 10
  %spec.select = select i1 %cond, i64 -4376, i64 -4104
  %24 = getelementptr inbounds i8, ptr %0, i64 %spec.select
  %25 = getelementptr inbounds nuw i8, ptr %24, i64 4648
  %26 = load ptr, ptr %25, align 8, !tbaa !25
  %.not.i = icmp eq ptr %26, null
  br i1 %.not.i, label %36, label %27

27:                                               ; preds = %ctx_to_m2mctx.exit.i
  %28 = getelementptr inbounds nuw i8, ptr %26, i64 16
  %29 = load ptr, ptr %28, align 8, !tbaa !87
  %30 = tail call i32 @av_codec_is_decoder(ptr noundef %29) #8
  %.not9.i = icmp eq i32 %30, 0
  br i1 %.not9.i, label %36, label %31

31:                                               ; preds = %27
  %32 = mul i32 %14, 3
  %33 = mul i32 %32, %18
  %34 = sdiv i32 %33, 4
  %35 = add nsw i32 %34, 128
  br label %.sink.split

36:                                               ; preds = %27, %ctx_to_m2mctx.exit.i
  %37 = add nsw i32 %14, 31
  %38 = and i32 %37, -32
  %39 = add nsw i32 %18, 31
  %40 = and i32 %39, -32
  %41 = mul nsw i32 %40, %38
  %42 = ashr exact i32 %41, 1
  %43 = add nsw i32 %42, %41
  %44 = ashr exact i32 %43, 1
  %45 = add nsw i32 %44, 4095
  %46 = and i32 %45, -4096
  br label %.sink.split

47:                                               ; preds = %12
  br i1 %.not30, label %77, label %48

48:                                               ; preds = %47
  %49 = load i32, ptr %1, align 4, !tbaa !86
  %50 = getelementptr inbounds nuw i8, ptr %0, i64 40
  store i32 %49, ptr %50, align 8, !tbaa !50
  %switch.tableidx = add i32 %4, -2
  %51 = icmp ult i32 %switch.tableidx, 13
  br i1 %51, label %switch.lookup, label %ctx_to_m2mctx.exit.i31

switch.lookup:                                    ; preds = %48
  %52 = zext nneg i32 %switch.tableidx to i64
  %switch.gep = getelementptr inbounds nuw [13 x i64], ptr @switch.table.v4l2_save_to_context, i64 0, i64 %52
  %switch.load = load i64, ptr %switch.gep, align 8
  br label %ctx_to_m2mctx.exit.i31

ctx_to_m2mctx.exit.i31:                           ; preds = %48, %switch.lookup
  %.sink.i.i32 = phi i64 [ %switch.load, %switch.lookup ], [ -4104, %48 ]
  %53 = getelementptr inbounds i8, ptr %0, i64 %.sink.i.i32
  %54 = getelementptr inbounds nuw i8, ptr %53, i64 4648
  %55 = load ptr, ptr %54, align 8, !tbaa !25
  %.not.i33 = icmp eq ptr %55, null
  br i1 %.not.i33, label %65, label %56

56:                                               ; preds = %ctx_to_m2mctx.exit.i31
  %57 = getelementptr inbounds nuw i8, ptr %55, i64 16
  %58 = load ptr, ptr %57, align 8, !tbaa !87
  %59 = tail call i32 @av_codec_is_decoder(ptr noundef %58) #8
  %.not9.i34 = icmp eq i32 %59, 0
  br i1 %.not9.i34, label %65, label %60

60:                                               ; preds = %56
  %61 = mul i32 %14, 3
  %62 = mul i32 %61, %18
  %63 = sdiv i32 %62, 4
  %64 = add nsw i32 %63, 128
  br label %.sink.split

65:                                               ; preds = %56, %ctx_to_m2mctx.exit.i31
  %66 = add nsw i32 %14, 31
  %67 = and i32 %66, -32
  %68 = add nsw i32 %18, 31
  %69 = and i32 %68, -32
  %70 = mul nsw i32 %69, %67
  %71 = ashr exact i32 %70, 1
  %72 = add nsw i32 %71, %70
  %73 = ashr exact i32 %72, 1
  %74 = add nsw i32 %73, 4095
  %75 = and i32 %74, -4096
  br label %.sink.split

.sink.split:                                      ; preds = %65, %60, %36, %31
  %.0.i35.sink = phi i32 [ %35, %31 ], [ %46, %36 ], [ %64, %60 ], [ %75, %65 ]
  %76 = getelementptr inbounds nuw i8, ptr %0, i64 52
  store i32 %.0.i35.sink, ptr %76, align 4, !tbaa !50
  br label %77

77:                                               ; preds = %.sink.split, %47, %21
  ret void
}